target datalayout = "e-m:e-p270:32:32-p271:32:32-p272:64:64-i64:64-i128:128-f80:128-n8:16:32:64-S128"
target triple = "x86_64-pc-linux-gnu"

@MarkStackSizeMax = external global i64, align 8
@.str.8 = private unnamed_addr constant [74 x i8] c"MarkStackSize (%lu) must be less than or equal to MarkStackSizeMax (%lu)\0A\00", align 1

; Function Attrs: mustprogress nounwind uwtable
define hidden noundef i32 @_Z27MarkStackSizeConstraintFuncmb(i64 noundef %0, i1 noundef zeroext %1) #1 {
  %3 = alloca i32, align 4
  %4 = alloca i64, align 8
  %5 = alloca i8, align 1
  store i64 %0, ptr %4, align 8
  %6 = zext i1 %1 to i8
  store i8 %6, ptr %5, align 1
  %7 = load i64, ptr %4, align 8
  %8 = load i64, ptr @MarkStackSizeMax, align 8
  %9 = icmp ugt i64 %7, %8
  br i1 %9, label %10, label %15

10:                                               ; preds = %2
  %11 = load i8, ptr %5, align 1
  %12 = trunc i8 %11 to i1
  %13 = load i64, ptr %4, align 8
  %14 = load i64, ptr @MarkStackSizeMax, align 8
  call void (i1, ptr, ...) @_ZN7JVMFlag10printErrorEbPKcz(i1 noundef zeroext %12, ptr noundef @.str.8, i64 noundef %13, i64 noundef %14)
  store i32 6, ptr %3, align 4
  br label %16

15:                                               ; preds = %2
  store i32 0, ptr %3, align 4
  br label %16

16:                                               ; preds = %15, %10
  %17 = load i32, ptr %3, align 4
  ret i32 %17
}