; Function Attrs: mustprogress nounwind uwtable
define hidden noundef range(i32 0, 7) i32 @_Z27MarkStackSizeConstraintFuncmb(i64 noundef %0, i1 noundef zeroext %1) local_unnamed_addr #0 {
  %3 = load i64, ptr @MarkStackSizeMax, align 8
  %4 = icmp ult i64 %3, %0
  br i1 %4, label %5, label %6

5:                                                ; preds = %2
  tail call void (i1, ptr, ...) @_ZN7JVMFlag10printErrorEbPKcz(i1 noundef zeroext %1, ptr noundef nonnull @.str.8, i64 noundef %0, i64 noundef %3) #4
  br label %6

6:                                                ; preds = %2, %5
  %.0 = phi i32 [ 6, %5 ], [ 0, %2 ]
  ret i32 %.0
}